; Function Attrs: nounwind uwtable
define ptr @l_Lean_Compiler_LCNF_instToMessageDataSpecParamInfo___boxed(ptr noundef %0) local_unnamed_addr #2 {
  %2 = ptrtoint ptr %0 to i64
  %3 = lshr i64 %2, 1
  %4 = and i64 %2, 1
  %.not = icmp eq i64 %4, 0
  br i1 %.not, label %5, label %lean_dec.exit

5:                                                ; preds = %1
  %6 = load i32, ptr %0, align 4, !tbaa !4
  %7 = icmp sgt i32 %6, 1
  br i1 %7, label %8, label %10, !prof !11

8:                                                ; preds = %5
  %9 = add nsw i32 %6, -1
  store i32 %9, ptr %0, align 4, !tbaa !4
  br label %lean_dec.exit

10:                                               ; preds = %5
  %.not.i = icmp eq i32 %6, 0
  br i1 %.not.i, label %lean_dec.exit, label %11

11:                                               ; preds = %10
  tail call void @lean_dec_ref_cold(ptr noundef nonnull %0) #8
  br label %lean_dec.exit

lean_dec.exit:                                    ; preds = %11, %10, %8, %1
  %12 = and i64 %2, 504
  %13 = icmp eq i64 %12, 0
  br i1 %13, label %switch.lookup, label %l_Lean_Compiler_LCNF_instToMessageDataSpecParamInfo.exit

switch.lookup:                                    ; preds = %lean_dec.exit
  %14 = and i64 %3, 3
  %switch.gep = getelementptr inbounds nuw [4 x ptr], ptr @switch.table.l_Lean_Compiler_LCNF_instToMessageDataSpecParamInfo___boxed, i64 0, i64 %14
  %switch.load = load ptr, ptr %switch.gep, align 8
  br label %l_Lean_Compiler_LCNF_instToMessageDataSpecParamInfo.exit

l_Lean_Compiler_LCNF_instToMessageDataSpecParamInfo.exit: ; preds = %lean_dec.exit, %switch.lookup
  %.0.in.i = phi ptr [ %switch.load, %switch.lookup ], [ @l_Lean_Compiler_LCNF_instToMessageDataSpecParamInfo___closed__15, %lean_dec.exit ]
  %.0.i = load ptr, ptr %.0.in.i, align 8, !tbaa !9
  ret ptr %.0.i
}